; Function Attrs: mustprogress uwtable
define hidden noundef zeroext i1 @_ZN3smt10theory_seq12add_solutionEP4exprS2_PN18dependency_managerIN25scoped_dependency_managerINS0_10assumptionEE6configEE10dependencyE(ptr noundef nonnull align 8 dereferenceable(4328) %this, ptr noundef %l, ptr noundef %r, ptr noundef %deps) local_unnamed_addr #3 align 2 {
entry:
  %cmp = icmp ne ptr %l, %r
  br i1 %cmp, label %if.end, label %return

if.end:                                           ; preds = %entry
  %m_new_solution = getelementptr inbounds i8, ptr %this, i64 4201
  store i8 1, ptr %m_new_solution, align 1
  %m_rep = getelementptr inbounds i8, ptr %this, i64 136
  tail call void @_ZN3smt10theory_seq12solution_map6updateEP4exprS3_PN18dependency_managerIN25scoped_dependency_managerINS0_10assumptionEE6configEE10dependencyE(ptr noundef nonnull align 8 dereferenceable(104) %m_rep, ptr noundef %l, ptr noundef %r, ptr noundef %deps)
  %call = tail call noundef ptr @_ZN3smt6theory12ensure_enodeEP4expr(ptr noundef nonnull align 8 dereferenceable(53) %this, ptr noundef %l)
  %call2 = tail call noundef ptr @_ZN3smt6theory12ensure_enodeEP4expr(ptr noundef nonnull align 8 dereferenceable(53) %this, ptr noundef %r)
  %call3 = tail call noundef zeroext i1 @_ZN3smt10theory_seq12propagate_eqEPN18dependency_managerIN25scoped_dependency_managerINS0_10assumptionEE6configEE10dependencyEPNS_5enodeESA_(ptr noundef nonnull align 8 dereferenceable(4328) %this, ptr noundef %deps, ptr noundef %call, ptr noundef %call2)
  br label %return

return:                                           ; preds = %entry, %if.end
  ret i1 %cmp
}